; Function Attrs: mustprogress uwtable
define noundef i32 @_ZNK10open_spiel10backgammon15BackgammonState12PositionFromEiii(ptr nocapture nonnull readnone align 8 %0, i32 noundef %1, i32 noundef %2, i32 noundef %3) local_unnamed_addr #4 align 2 personality ptr @__gxx_personality_v0 {
  %5 = alloca %"class.std::__cxx11::basic_string", align 8
  %6 = alloca %"class.absl::debian2::AlphaNum", align 8
  %7 = alloca %"class.absl::debian2::AlphaNum", align 8
  %8 = alloca %"class.std::__cxx11::basic_string", align 8
  %9 = alloca %"class.absl::debian2::AlphaNum", align 8
  %10 = alloca %"class.absl::debian2::AlphaNum", align 8
  %11 = icmp eq i32 %2, 100
  br i1 %11, label %12, label %29

12:                                               ; preds = %4
  call void @llvm.lifetime.start.p0(i64 32, ptr nonnull %5)
  call void @llvm.lifetime.start.p0(i64 48, ptr nonnull %6)
  call void @llvm.lifetime.start.p0(i64 48, ptr nonnull %7)
  switch i32 %1, label %_ZN4absl7debian28AlphaNumC2EPKc.exit.i [
    i32 0, label %13
    i32 1, label %15
  ]

13:                                               ; preds = %12
  %14 = add nsw i32 %3, -1
  br label %_ZNK10open_spiel10backgammon15BackgammonState15PositionFromBarEii.exit

15:                                               ; preds = %12
  %16 = sub nsw i32 24, %3
  br label %_ZNK10open_spiel10backgammon15BackgammonState15PositionFromBarEii.exit

_ZN4absl7debian28AlphaNumC2EPKc.exit.i:           ; preds = %12
  store ptr @.str.90, ptr %6, align 8
  %17 = getelementptr inbounds nuw i8, ptr %6, i64 8
  store i64 16, ptr %17, align 8
  %18 = getelementptr inbounds nuw i8, ptr %7, i64 16
  %19 = call noundef ptr @_ZN4absl7debian216numbers_internal15FastIntToBufferEiPc(i32 noundef %1, ptr noundef nonnull %18)
  %20 = ptrtoint ptr %19 to i64
  %21 = ptrtoint ptr %18 to i64
  %22 = sub i64 %20, %21
  store ptr %18, ptr %7, align 8
  %23 = icmp sgt i64 %22, -1
  br i1 %23, label %_ZN4absl7debian28AlphaNumC2Ei.exit.i, label %24

24:                                               ; preds = %_ZN4absl7debian28AlphaNumC2EPKc.exit.i
  call void @llvm.trap()
  unreachable

_ZN4absl7debian28AlphaNumC2Ei.exit.i:             ; preds = %_ZN4absl7debian28AlphaNumC2EPKc.exit.i
  %25 = getelementptr inbounds nuw i8, ptr %7, i64 8
  store i64 %22, ptr %25, align 8
  call void @_ZN4absl7debian26StrCatB5cxx11ERKNS0_8AlphaNumES3_(ptr dead_on_unwind nonnull writable sret(%"class.std::__cxx11::basic_string") align 8 %5, ptr noundef nonnull align 8 dereferenceable(48) %6, ptr noundef nonnull align 8 dereferenceable(48) %7)
  invoke void @_ZN10open_spiel15SpielFatalErrorERKNSt7__cxx1112basic_stringIcSt11char_traitsIcESaIcEEE(ptr noundef nonnull align 8 dereferenceable(32) %5) #29
          to label %26 unwind label %27

26:                                               ; preds = %_ZN4absl7debian28AlphaNumC2Ei.exit.i
  unreachable

common.resume:                                    ; preds = %48, %27
  %.sink = phi ptr [ %8, %48 ], [ %5, %27 ]
  %common.resume.op = phi { ptr, i32 } [ %49, %48 ], [ %28, %27 ]
  call void @_ZNSt7__cxx1112basic_stringIcSt11char_traitsIcESaIcEED1Ev(ptr noundef nonnull align 8 dereferenceable(32) %.sink) #30
  resume { ptr, i32 } %common.resume.op

27:                                               ; preds = %_ZN4absl7debian28AlphaNumC2Ei.exit.i
  %28 = landingpad { ptr, i32 }
          cleanup
  br label %common.resume

_ZNK10open_spiel10backgammon15BackgammonState15PositionFromBarEii.exit: ; preds = %13, %15
  %.0.i = phi i32 [ %14, %13 ], [ %16, %15 ]
  call void @llvm.lifetime.end.p0(i64 32, ptr nonnull %5)
  call void @llvm.lifetime.end.p0(i64 48, ptr nonnull %6)
  call void @llvm.lifetime.end.p0(i64 48, ptr nonnull %7)
  br label %50

29:                                               ; preds = %4
  switch i32 %1, label %_ZN4absl7debian28AlphaNumC2EPKc.exit [
    i32 0, label %30
    i32 1, label %34
  ]

30:                                               ; preds = %29
  %31 = add nsw i32 %3, %2
  %32 = icmp sgt i32 %31, 23
  %33 = select i1 %32, i32 101, i32 %31
  br label %50

34:                                               ; preds = %29
  %35 = sub nsw i32 %2, %3
  %36 = icmp slt i32 %35, 0
  %37 = select i1 %36, i32 101, i32 %35
  br label %50

_ZN4absl7debian28AlphaNumC2EPKc.exit:             ; preds = %29
  store ptr @.str.90, ptr %9, align 8
  %38 = getelementptr inbounds nuw i8, ptr %9, i64 8
  store i64 16, ptr %38, align 8
  %39 = getelementptr inbounds nuw i8, ptr %10, i64 16
  %40 = call noundef ptr @_ZN4absl7debian216numbers_internal15FastIntToBufferEiPc(i32 noundef %1, ptr noundef nonnull %39)
  %41 = ptrtoint ptr %40 to i64
  %42 = ptrtoint ptr %39 to i64
  %43 = sub i64 %41, %42
  store ptr %39, ptr %10, align 8
  %44 = icmp sgt i64 %43, -1
  br i1 %44, label %_ZN4absl7debian28AlphaNumC2Ei.exit, label %45

45:                                               ; preds = %_ZN4absl7debian28AlphaNumC2EPKc.exit
  call void @llvm.trap()
  unreachable

_ZN4absl7debian28AlphaNumC2Ei.exit:               ; preds = %_ZN4absl7debian28AlphaNumC2EPKc.exit
  %46 = getelementptr inbounds nuw i8, ptr %10, i64 8
  store i64 %43, ptr %46, align 8
  call void @_ZN4absl7debian26StrCatB5cxx11ERKNS0_8AlphaNumES3_(ptr dead_on_unwind nonnull writable sret(%"class.std::__cxx11::basic_string") align 8 %8, ptr noundef nonnull align 8 dereferenceable(48) %9, ptr noundef nonnull align 8 dereferenceable(48) %10)
  invoke void @_ZN10open_spiel15SpielFatalErrorERKNSt7__cxx1112basic_stringIcSt11char_traitsIcESaIcEEE(ptr noundef nonnull align 8 dereferenceable(32) %8) #29
          to label %47 unwind label %48

47:                                               ; preds = %_ZN4absl7debian28AlphaNumC2Ei.exit
  unreachable

48:                                               ; preds = %_ZN4absl7debian28AlphaNumC2Ei.exit
  %49 = landingpad { ptr, i32 }
          cleanup
  br label %common.resume

50:                                               ; preds = %34, %30, %_ZNK10open_spiel10backgammon15BackgammonState15PositionFromBarEii.exit
  %.0 = phi i32 [ %.0.i, %_ZNK10open_spiel10backgammon15BackgammonState15PositionFromBarEii.exit ], [ %33, %30 ], [ %37, %34 ]
  ret i32 %.0
}